target datalayout = "e-m:e-p270:32:32-p271:32:32-p272:64:64-i64:64-i128:128-f80:128-n8:16:32:64-S128"
target triple = "x86_64-pc-linux-gnu"

%struct.asn1_string_st = type { i32, i32, ptr, i64 }

@.str = private unnamed_addr constant [34 x i8] c"../openssl/crypto/asn1/a_bitstr.c\00", align 1
@__func__.ossl_c2i_ASN1_BIT_STRING = private unnamed_addr constant [25 x i8] c"ossl_c2i_ASN1_BIT_STRING\00", align 1

; Function Attrs: nounwind uwtable
define ptr @ossl_c2i_ASN1_BIT_STRING(ptr noundef %0, ptr noundef %1, i64 noundef %2) #0 {
  %4 = alloca ptr, align 8
  %5 = alloca ptr, align 8
  %6 = alloca ptr, align 8
  %7 = alloca i64, align 8
  %8 = alloca ptr, align 8
  %9 = alloca ptr, align 8
  %10 = alloca ptr, align 8
  %11 = alloca i32, align 4
  %12 = alloca i32, align 4
  store ptr %0, ptr %5, align 8, !tbaa !22
  store ptr %1, ptr %6, align 8, !tbaa !12
  store i64 %2, ptr %7, align 8, !tbaa !24
  call void @llvm.lifetime.start.p0(i64 8, ptr %8) #5
  store ptr null, ptr %8, align 8, !tbaa !3
  call void @llvm.lifetime.start.p0(i64 8, ptr %9) #5
  call void @llvm.lifetime.start.p0(i64 8, ptr %10) #5
  call void @llvm.lifetime.start.p0(i64 4, ptr %11) #5
  store i32 0, ptr %11, align 4, !tbaa !10
  %13 = load i64, ptr %7, align 8, !tbaa !24
  %14 = icmp slt i64 %13, 1
  br i1 %14, label %15, label %16

15:                                               ; preds = %3
  store i32 152, ptr %11, align 4, !tbaa !10
  br label %95

16:                                               ; preds = %3
  %17 = load i64, ptr %7, align 8, !tbaa !24
  %18 = icmp sgt i64 %17, 2147483647
  br i1 %18, label %19, label %20

19:                                               ; preds = %16
  store i32 151, ptr %11, align 4, !tbaa !10
  br label %95

20:                                               ; preds = %16
  %21 = load ptr, ptr %5, align 8, !tbaa !22
  %22 = icmp eq ptr %21, null
  br i1 %22, label %27, label %23

23:                                               ; preds = %20
  %24 = load ptr, ptr %5, align 8, !tbaa !22
  %25 = load ptr, ptr %24, align 8, !tbaa !3
  %26 = icmp eq ptr %25, null
  br i1 %26, label %27, label %32

27:                                               ; preds = %23, %20
  %28 = call ptr @ASN1_BIT_STRING_new()
  store ptr %28, ptr %8, align 8, !tbaa !3
  %29 = icmp eq ptr %28, null
  br i1 %29, label %30, label %31

30:                                               ; preds = %27
  store ptr null, ptr %4, align 8
  store i32 1, ptr %12, align 4
  br label %111

31:                                               ; preds = %27
  br label %35

32:                                               ; preds = %23
  %33 = load ptr, ptr %5, align 8, !tbaa !22
  %34 = load ptr, ptr %33, align 8, !tbaa !3
  store ptr %34, ptr %8, align 8, !tbaa !3
  br label %35

35:                                               ; preds = %32, %31
  %36 = load ptr, ptr %6, align 8, !tbaa !12
  %37 = load ptr, ptr %36, align 8, !tbaa !8
  store ptr %37, ptr %9, align 8, !tbaa !8
  %38 = load ptr, ptr %9, align 8, !tbaa !8
  %39 = getelementptr inbounds nuw i8, ptr %38, i32 1
  store ptr %39, ptr %9, align 8, !tbaa !8
  %40 = load i8, ptr %38, align 1, !tbaa !19
  %41 = zext i8 %40 to i32
  store i32 %41, ptr %11, align 4, !tbaa !10
  %42 = load i32, ptr %11, align 4, !tbaa !10
  %43 = icmp sgt i32 %42, 7
  br i1 %43, label %44, label %45

44:                                               ; preds = %35
  store i32 220, ptr %11, align 4, !tbaa !10
  br label %95

45:                                               ; preds = %35
  %46 = load ptr, ptr %8, align 8, !tbaa !3
  %47 = load i32, ptr %11, align 4, !tbaa !10
  call void @ossl_asn1_string_set_bits_left(ptr noundef %46, i32 noundef %47)
  %48 = load i64, ptr %7, align 8, !tbaa !24
  %49 = add nsw i64 %48, -1
  store i64 %49, ptr %7, align 8, !tbaa !24
  %50 = icmp sgt i64 %48, 1
  br i1 %50, label %51, label %78

51:                                               ; preds = %45
  %52 = load i64, ptr %7, align 8, !tbaa !24
  %53 = trunc i64 %52 to i32
  %54 = sext i32 %53 to i64
  %55 = call noalias ptr @CRYPTO_malloc(i64 noundef %54, ptr noundef @.str, i32 noundef 121)
  store ptr %55, ptr %10, align 8, !tbaa !8
  %56 = load ptr, ptr %10, align 8, !tbaa !8
  %57 = icmp eq ptr %56, null
  br i1 %57, label %58, label %59

58:                                               ; preds = %51
  br label %95

59:                                               ; preds = %51
  %60 = load ptr, ptr %10, align 8, !tbaa !8
  %61 = load ptr, ptr %9, align 8, !tbaa !8
  %62 = load i64, ptr %7, align 8, !tbaa !24
  %63 = trunc i64 %62 to i32
  %64 = sext i32 %63 to i64
  call void @llvm.memcpy.p0.p0.i64(ptr align 1 %60, ptr align 1 %61, i64 %64, i1 false)
  %65 = load i32, ptr %11, align 4, !tbaa !10
  %66 = shl i32 255, %65
  %67 = load ptr, ptr %10, align 8, !tbaa !8
  %68 = load i64, ptr %7, align 8, !tbaa !24
  %69 = sub nsw i64 %68, 1
  %70 = getelementptr inbounds i8, ptr %67, i64 %69
  %71 = load i8, ptr %70, align 1, !tbaa !19
  %72 = zext i8 %71 to i32
  %73 = and i32 %72, %66
  %74 = trunc i32 %73 to i8
  store i8 %74, ptr %70, align 1, !tbaa !19
  %75 = load i64, ptr %7, align 8, !tbaa !24
  %76 = load ptr, ptr %9, align 8, !tbaa !8
  %77 = getelementptr inbounds i8, ptr %76, i64 %75
  store ptr %77, ptr %9, align 8, !tbaa !8
  br label %79

78:                                               ; preds = %45
  store ptr null, ptr %10, align 8, !tbaa !8
  br label %79

79:                                               ; preds = %78, %59
  %80 = load ptr, ptr %8, align 8, !tbaa !3
  %81 = load ptr, ptr %10, align 8, !tbaa !8
  %82 = load i64, ptr %7, align 8, !tbaa !24
  %83 = trunc i64 %82 to i32
  call void @ASN1_STRING_set0(ptr noundef %80, ptr noundef %81, i32 noundef %83)
  %84 = load ptr, ptr %8, align 8, !tbaa !3
  %85 = getelementptr inbounds nuw %struct.asn1_string_st, ptr %84, i32 0, i32 1
  store i32 3, ptr %85, align 4, !tbaa !25
  %86 = load ptr, ptr %5, align 8, !tbaa !22
  %87 = icmp ne ptr %86, null
  br i1 %87, label %88, label %91

88:                                               ; preds = %79
  %89 = load ptr, ptr %8, align 8, !tbaa !3
  %90 = load ptr, ptr %5, align 8, !tbaa !22
  store ptr %89, ptr %90, align 8, !tbaa !3
  br label %91

91:                                               ; preds = %88, %79
  %92 = load ptr, ptr %9, align 8, !tbaa !8
  %93 = load ptr, ptr %6, align 8, !tbaa !12
  store ptr %92, ptr %93, align 8, !tbaa !8
  %94 = load ptr, ptr %8, align 8, !tbaa !3
  store ptr %94, ptr %4, align 8
  store i32 1, ptr %12, align 4
  br label %111

95:                                               ; preds = %58, %44, %19, %15
  %96 = load i32, ptr %11, align 4, !tbaa !10
  %97 = icmp ne i32 %96, 0
  br i1 %97, label %98, label %100

98:                                               ; preds = %95
  call void @ERR_new()
  call void @ERR_set_debug(ptr noundef @.str, i32 noundef 139, ptr noundef @__func__.ossl_c2i_ASN1_BIT_STRING)
  %99 = load i32, ptr %11, align 4, !tbaa !10
  call void (i32, i32, ptr, ...) @ERR_set_error(i32 noundef 13, i32 noundef %99, ptr noundef null)
  br label %100

100:                                              ; preds = %98, %95
  %101 = load ptr, ptr %5, align 8, !tbaa !22
  %102 = icmp eq ptr %101, null
  br i1 %102, label %108, label %103

103:                                              ; preds = %100
  %104 = load ptr, ptr %5, align 8, !tbaa !22
  %105 = load ptr, ptr %104, align 8, !tbaa !3
  %106 = load ptr, ptr %8, align 8, !tbaa !3
  %107 = icmp ne ptr %105, %106
  br i1 %107, label %108, label %110

108:                                              ; preds = %103, %100
  %109 = load ptr, ptr %8, align 8, !tbaa !3
  call void @ASN1_BIT_STRING_free(ptr noundef %109)
  br label %110

110:                                              ; preds = %108, %103
  store ptr null, ptr %4, align 8
  store i32 1, ptr %12, align 4
  br label %111

111:                                              ; preds = %110, %91, %30
  call void @llvm.lifetime.end.p0(i64 4, ptr %11) #5
  call void @llvm.lifetime.end.p0(i64 8, ptr %10) #5
  call void @llvm.lifetime.end.p0(i64 8, ptr %9) #5
  call void @llvm.lifetime.end.p0(i64 8, ptr %8) #5
  %112 = load ptr, ptr %4, align 8
  ret ptr %112
}