; Function Attrs: nounwind uwtable
define ptr @ossl_c2i_ASN1_BIT_STRING(ptr noundef captures(address_is_null) %0, ptr noundef captures(none) %1, i64 noundef %2) local_unnamed_addr #0 {
  %4 = icmp slt i64 %2, 1
  br i1 %4, label %.thread, label %5

5:                                                ; preds = %3
  %6 = icmp samesign ugt i64 %2, 2147483647
  br i1 %6, label %.thread, label %7

7:                                                ; preds = %5
  %8 = icmp eq ptr %0, null
  br i1 %8, label %12, label %9

9:                                                ; preds = %7
  %10 = load ptr, ptr %0, align 8, !tbaa !17
  %11 = icmp eq ptr %10, null
  br i1 %11, label %12, label %15

12:                                               ; preds = %9, %7
  %13 = tail call ptr @ASN1_BIT_STRING_new() #7
  %14 = icmp eq ptr %13, null
  br i1 %14, label %45, label %15

15:                                               ; preds = %9, %12
  %.1 = phi ptr [ %13, %12 ], [ %10, %9 ]
  %16 = load ptr, ptr %1, align 8, !tbaa !16
  %17 = getelementptr inbounds nuw i8, ptr %16, i64 1
  %18 = load i8, ptr %16, align 1, !tbaa !13
  %19 = zext i8 %18 to i32
  %20 = icmp ugt i8 %18, 7
  br i1 %20, label %.thread, label %21

21:                                               ; preds = %15
  tail call void @ossl_asn1_string_set_bits_left(ptr noundef nonnull %.1, i32 noundef %19) #7
  %22 = add nsw i64 %2, -1
  %.not = icmp eq i64 %2, 1
  br i1 %.not, label %34, label %23

23:                                               ; preds = %21
  %24 = tail call noalias ptr @CRYPTO_malloc(i64 noundef %22, ptr noundef nonnull @.str, i32 noundef 121) #7
  %25 = icmp eq ptr %24, null
  br i1 %25, label %39, label %26

26:                                               ; preds = %23
  tail call void @llvm.memcpy.p0.p0.i64(ptr nonnull align 1 %24, ptr nonnull align 1 %17, i64 %22, i1 false)
  %27 = shl nuw nsw i32 255, %19
  %28 = getelementptr i8, ptr %24, i64 %2
  %29 = getelementptr i8, ptr %28, i64 -2
  %30 = load i8, ptr %29, align 1, !tbaa !13
  %31 = trunc i32 %27 to i8
  %32 = and i8 %30, %31
  store i8 %32, ptr %29, align 1, !tbaa !13
  %33 = getelementptr i8, ptr %16, i64 %2
  br label %34

34:                                               ; preds = %21, %26
  %.038 = phi ptr [ %33, %26 ], [ %17, %21 ]
  %.037 = phi ptr [ %24, %26 ], [ null, %21 ]
  %35 = trunc nuw nsw i64 %22 to i32
  tail call void @ASN1_STRING_set0(ptr noundef nonnull %.1, ptr noundef %.037, i32 noundef %35) #7
  %36 = getelementptr inbounds nuw i8, ptr %.1, i64 4
  store i32 3, ptr %36, align 4, !tbaa !19
  br i1 %8, label %38, label %37

37:                                               ; preds = %34
  store ptr %.1, ptr %0, align 8, !tbaa !17
  br label %38

38:                                               ; preds = %37, %34
  store ptr %.038, ptr %1, align 8, !tbaa !16
  br label %45

39:                                               ; preds = %23
  %.not49 = icmp eq i8 %18, 0
  br i1 %.not49, label %40, label %.thread

.thread:                                          ; preds = %15, %5, %3, %39
  %.056 = phi i32 [ %19, %39 ], [ 220, %15 ], [ 151, %5 ], [ 152, %3 ]
  %.03954 = phi ptr [ %.1, %39 ], [ %.1, %15 ], [ null, %5 ], [ null, %3 ]
  tail call void @ERR_new() #7
  tail call void @ERR_set_debug(ptr noundef nonnull @.str, i32 noundef 139, ptr noundef nonnull @__func__.ossl_c2i_ASN1_BIT_STRING) #7
  tail call void (i32, i32, ptr, ...) @ERR_set_error(i32 noundef 13, i32 noundef %.056, ptr noundef null) #7
  br label %40

40:                                               ; preds = %.thread, %39
  %.03955 = phi ptr [ %.03954, %.thread ], [ %.1, %39 ]
  %41 = icmp eq ptr %0, null
  br i1 %41, label %44, label %42

42:                                               ; preds = %40
  %43 = load ptr, ptr %0, align 8, !tbaa !17
  %.not50 = icmp eq ptr %43, %.03955
  br i1 %.not50, label %45, label %44

44:                                               ; preds = %42, %40
  tail call void @ASN1_BIT_STRING_free(ptr noundef %.03955) #7
  br label %45

45:                                               ; preds = %42, %44, %12, %38
  %.040 = phi ptr [ %.1, %38 ], [ null, %12 ], [ null, %44 ], [ null, %42 ]
  ret ptr %.040
}